target datalayout = "e-m:e-p270:32:32-p271:32:32-p272:64:64-i64:64-i128:128-f80:128-n8:16:32:64-S128"
target triple = "x86_64-pc-linux-gnu"

%"class.llvm::TargetLibraryInfoImpl" = type { [126 x i8], [2 x i8], %"class.llvm::DenseMap.109", i8, i8, i8, i8, i32, %"class.std::vector", %"class.std::vector" }
%"class.llvm::DenseMap.109" = type <{ ptr, i32, i32, i32, [4 x i8] }>
%"class.std::vector" = type { %"struct.std::_Vector_base" }
%"struct.std::_Vector_base" = type { %"struct.std::_Vector_base<llvm::VecDesc, std::allocator<llvm::VecDesc>>::_Vector_impl" }
%"struct.std::_Vector_base<llvm::VecDesc, std::allocator<llvm::VecDesc>>::_Vector_impl" = type { %"struct.std::_Vector_base<llvm::VecDesc, std::allocator<llvm::VecDesc>>::_Vector_impl_data" }
%"struct.std::_Vector_base<llvm::VecDesc, std::allocator<llvm::VecDesc>>::_Vector_impl_data" = type { ptr, ptr, ptr }

; Function Attrs: mustprogress nounwind uwtable
define linkonce_odr hidden noundef nonnull align 8 dereferenceable(20) ptr @_ZN4llvm8DenseMapIjNSt7__cxx1112basic_stringIcSt11char_traitsIcESaIcEEENS_12DenseMapInfoIjvEENS_6detail12DenseMapPairIjS6_EEEaSERKSC_(ptr noundef nonnull align 8 dereferenceable(20) %0, ptr noundef nonnull align 8 dereferenceable(20) %1) #1 comdat align 2 {
  %3 = alloca ptr, align 8
  %4 = alloca ptr, align 8
  store ptr %0, ptr %3, align 8
  store ptr %1, ptr %4, align 8
  %5 = load ptr, ptr %3, align 8
  %6 = load ptr, ptr %4, align 8
  %7 = icmp ne ptr %6, %5
  br i1 %7, label %8, label %10

8:                                                ; preds = %2
  %9 = load ptr, ptr %4, align 8
  call void @_ZN4llvm8DenseMapIjNSt7__cxx1112basic_stringIcSt11char_traitsIcESaIcEEENS_12DenseMapInfoIjvEENS_6detail12DenseMapPairIjS6_EEE8copyFromERKSC_(ptr noundef nonnull align 8 dereferenceable(20) %5, ptr noundef nonnull align 8 dereferenceable(20) %9)
  br label %10

10:                                               ; preds = %8, %2
  ret ptr %5
}

; Function Attrs: mustprogress nounwind uwtable
define dso_local noundef nonnull align 8 dereferenceable(208) ptr @_ZN4llvm21TargetLibraryInfoImplaSERKS0_(ptr noundef nonnull align 8 dereferenceable(208) %0, ptr noundef nonnull align 8 dereferenceable(208) %1) #1 align 2 {
  %3 = alloca ptr, align 8
  %4 = alloca ptr, align 8
  store ptr %0, ptr %3, align 8
  store ptr %1, ptr %4, align 8
  %5 = load ptr, ptr %3, align 8
  %6 = load ptr, ptr %4, align 8
  %7 = getelementptr inbounds nuw %"class.llvm::TargetLibraryInfoImpl", ptr %6, i32 0, i32 2
  %8 = getelementptr inbounds nuw %"class.llvm::TargetLibraryInfoImpl", ptr %5, i32 0, i32 2
  %9 = call noundef nonnull align 8 dereferenceable(20) ptr @_ZN4llvm8DenseMapIjNSt7__cxx1112basic_stringIcSt11char_traitsIcESaIcEEENS_12DenseMapInfoIjvEENS_6detail12DenseMapPairIjS6_EEEaSERKSC_(ptr noundef nonnull align 8 dereferenceable(20) %8, ptr noundef nonnull align 8 dereferenceable(20) %7)
  %10 = load ptr, ptr %4, align 8
  %11 = getelementptr inbounds nuw %"class.llvm::TargetLibraryInfoImpl", ptr %10, i32 0, i32 3
  %12 = load i8, ptr %11, align 8
  %13 = trunc i8 %12 to i1
  %14 = getelementptr inbounds nuw %"class.llvm::TargetLibraryInfoImpl", ptr %5, i32 0, i32 3
  %15 = zext i1 %13 to i8
  store i8 %15, ptr %14, align 8
  %16 = load ptr, ptr %4, align 8
  %17 = getelementptr inbounds nuw %"class.llvm::TargetLibraryInfoImpl", ptr %16, i32 0, i32 4
  %18 = load i8, ptr %17, align 1
  %19 = trunc i8 %18 to i1
  %20 = getelementptr inbounds nuw %"class.llvm::TargetLibraryInfoImpl", ptr %5, i32 0, i32 4
  %21 = zext i1 %19 to i8
  store i8 %21, ptr %20, align 1
  %22 = load ptr, ptr %4, align 8
  %23 = getelementptr inbounds nuw %"class.llvm::TargetLibraryInfoImpl", ptr %22, i32 0, i32 5
  %24 = load i8, ptr %23, align 2
  %25 = trunc i8 %24 to i1
  %26 = getelementptr inbounds nuw %"class.llvm::TargetLibraryInfoImpl", ptr %5, i32 0, i32 5
  %27 = zext i1 %25 to i8
  store i8 %27, ptr %26, align 2
  %28 = load ptr, ptr %4, align 8
  %29 = getelementptr inbounds nuw %"class.llvm::TargetLibraryInfoImpl", ptr %28, i32 0, i32 6
  %30 = load i8, ptr %29, align 1
  %31 = trunc i8 %30 to i1
  %32 = getelementptr inbounds nuw %"class.llvm::TargetLibraryInfoImpl", ptr %5, i32 0, i32 6
  %33 = zext i1 %31 to i8
  store i8 %33, ptr %32, align 1
  %34 = load ptr, ptr %4, align 8
  %35 = getelementptr inbounds nuw %"class.llvm::TargetLibraryInfoImpl", ptr %34, i32 0, i32 7
  %36 = load i32, ptr %35, align 4
  %37 = getelementptr inbounds nuw %"class.llvm::TargetLibraryInfoImpl", ptr %5, i32 0, i32 7
  store i32 %36, ptr %37, align 4
  %38 = getelementptr inbounds nuw %"class.llvm::TargetLibraryInfoImpl", ptr %5, i32 0, i32 0
  %39 = getelementptr inbounds [126 x i8], ptr %38, i64 0, i64 0
  %40 = load ptr, ptr %4, align 8
  %41 = getelementptr inbounds nuw %"class.llvm::TargetLibraryInfoImpl", ptr %40, i32 0, i32 0
  %42 = getelementptr inbounds [126 x i8], ptr %41, i64 0, i64 0
  call void @llvm.memcpy.p0.p0.i64(ptr align 8 %39, ptr align 8 %42, i64 126, i1 false)
  ret ptr %5
}