; Function Attrs: mustprogress nounwind uwtable
define dso_local noundef nonnull align 8 dereferenceable(208) ptr @_ZN4llvm21TargetLibraryInfoImplaSERKS0_(ptr noundef nonnull returned align 8 dereferenceable(208) %0, ptr noundef nonnull align 8 dereferenceable(208) %1) local_unnamed_addr #0 align 2 {
  %.not.i = icmp eq ptr %1, %0
  br i1 %.not.i, label %_ZN4llvm8DenseMapIjNSt7__cxx1112basic_stringIcSt11char_traitsIcESaIcEEENS_12DenseMapInfoIjvEENS_6detail12DenseMapPairIjS6_EEEaSERKSC_.exit, label %3

3:                                                ; preds = %2
  %4 = getelementptr inbounds nuw i8, ptr %0, i64 128
  %5 = getelementptr inbounds nuw i8, ptr %1, i64 128
  tail call void @_ZN4llvm8DenseMapIjNSt7__cxx1112basic_stringIcSt11char_traitsIcESaIcEEENS_12DenseMapInfoIjvEENS_6detail12DenseMapPairIjS6_EEE8copyFromERKSC_(ptr noundef nonnull align 8 dereferenceable(20) %4, ptr noundef nonnull align 8 dereferenceable(20) %5)
  br label %_ZN4llvm8DenseMapIjNSt7__cxx1112basic_stringIcSt11char_traitsIcESaIcEEENS_12DenseMapInfoIjvEENS_6detail12DenseMapPairIjS6_EEEaSERKSC_.exit

_ZN4llvm8DenseMapIjNSt7__cxx1112basic_stringIcSt11char_traitsIcESaIcEEENS_12DenseMapInfoIjvEENS_6detail12DenseMapPairIjS6_EEEaSERKSC_.exit: ; preds = %2, %3
  %6 = getelementptr inbounds nuw i8, ptr %1, i64 152
  %7 = load i8, ptr %6, align 8
  %8 = getelementptr inbounds nuw i8, ptr %0, i64 152
  %9 = and i8 %7, 1
  store i8 %9, ptr %8, align 8
  %10 = getelementptr inbounds nuw i8, ptr %1, i64 153
  %11 = load i8, ptr %10, align 1
  %12 = getelementptr inbounds nuw i8, ptr %0, i64 153
  %13 = and i8 %11, 1
  store i8 %13, ptr %12, align 1
  %14 = getelementptr inbounds nuw i8, ptr %1, i64 154
  %15 = load i8, ptr %14, align 2
  %16 = getelementptr inbounds nuw i8, ptr %0, i64 154
  %17 = and i8 %15, 1
  store i8 %17, ptr %16, align 2
  %18 = getelementptr inbounds nuw i8, ptr %1, i64 155
  %19 = load i8, ptr %18, align 1
  %20 = getelementptr inbounds nuw i8, ptr %0, i64 155
  %21 = and i8 %19, 1
  store i8 %21, ptr %20, align 1
  %22 = getelementptr inbounds nuw i8, ptr %1, i64 156
  %23 = load i32, ptr %22, align 4
  %24 = getelementptr inbounds nuw i8, ptr %0, i64 156
  store i32 %23, ptr %24, align 4
  tail call void @llvm.memcpy.p0.p0.i64(ptr noundef nonnull align 8 dereferenceable(126) %0, ptr noundef nonnull align 8 dereferenceable(126) %1, i64 126, i1 false)
  ret ptr %0
}